target datalayout = "e-m:e-p270:32:32-p271:32:32-p272:64:64-i64:64-i128:128-f80:128-n8:16:32:64-S128"
target triple = "x86_64-pc-linux-gnu"

%struct.expert_field = type { i32, i32 }

@hf_ecmp_option = internal global i32 0, align 4
@hf_ecmp_process_time = internal global i32 0, align 4
@ett_ecmp_option = internal global i32 0, align 4
@ett_ecmp_option_data = internal global i32 0, align 4
@ei_ecmp_option = internal global %struct.expert_field zeroinitializer, align 4
@.str.628 = private unnamed_addr constant [8 x i8] c"Options\00", align 1
@.str.629 = private unnamed_addr constant [5 x i8] c": %d\00", align 1
@.str.630 = private unnamed_addr constant [4 x i8] c"%d \00", align 1

; Function Attrs: null_pointer_is_valid sspstrong uwtable
define internal i32 @add_option_codes(i32 noundef %0, ptr noundef %1, ptr noundef %2, ptr noundef %3) #0 {
  %5 = alloca i32, align 4
  %6 = alloca ptr, align 8
  %7 = alloca ptr, align 8
  %8 = alloca ptr, align 8
  %9 = alloca ptr, align 8
  %10 = alloca ptr, align 8
  %11 = alloca ptr, align 8
  %12 = alloca ptr, align 8
  %13 = alloca i8, align 1
  %14 = alloca i16, align 2
  %15 = alloca i32, align 4
  %16 = alloca i8, align 1
  store i32 %0, ptr %5, align 4
  store ptr %1, ptr %6, align 8
  store ptr %2, ptr %7, align 8
  store ptr %3, ptr %8, align 8
  call void @llvm.lifetime.start.p0(i64 8, ptr %9) #3
  store ptr null, ptr %9, align 8
  call void @llvm.lifetime.start.p0(i64 8, ptr %10) #3
  call void @llvm.lifetime.start.p0(i64 8, ptr %11) #3
  call void @llvm.lifetime.start.p0(i64 8, ptr %12) #3
  store ptr null, ptr %12, align 8
  call void @llvm.lifetime.start.p0(i64 1, ptr %13) #3
  store i8 0, ptr %13, align 1
  call void @llvm.lifetime.start.p0(i64 2, ptr %14) #3
  store i16 0, ptr %14, align 2
  call void @llvm.lifetime.start.p0(i64 4, ptr %15) #3
  call void @llvm.lifetime.start.p0(i64 1, ptr %16) #3
  store i8 1, ptr %16, align 1
  %17 = load i32, ptr %5, align 4
  %18 = add i32 %17, 1
  store i32 %18, ptr %5, align 4
  %19 = load i32, ptr %5, align 4
  store i32 %19, ptr %15, align 4
  %20 = load ptr, ptr %8, align 8
  %21 = load ptr, ptr %7, align 8
  %22 = load i32, ptr %5, align 4
  %23 = load i32, ptr @ett_ecmp_option, align 4
  %24 = call ptr @proto_tree_add_subtree(ptr noundef %20, ptr noundef %21, i32 noundef %22, i32 noundef 1, i32 noundef %23, ptr noundef %9, ptr noundef @.str.628)
  store ptr %24, ptr %11, align 8
  br label %25

25:                                               ; preds = %67, %4
  %26 = load i8, ptr %16, align 1, !range !6, !noundef !7
  %27 = trunc i8 %26 to i1
  br i1 %27, label %28, label %70

28:                                               ; preds = %25
  %29 = load ptr, ptr %7, align 8
  %30 = load i32, ptr %5, align 4
  %31 = call zeroext i8 @tvb_get_uint8(ptr noundef %29, i32 noundef %30)
  store i8 %31, ptr %13, align 1
  %32 = load ptr, ptr %11, align 8
  %33 = load i32, ptr @hf_ecmp_option, align 4
  %34 = load ptr, ptr %7, align 8
  %35 = load i32, ptr %5, align 4
  %36 = call ptr @proto_tree_add_item(ptr noundef %32, i32 noundef %33, ptr noundef %34, i32 noundef %35, i32 noundef 1, i32 noundef 0)
  store ptr %36, ptr %10, align 8
  %37 = load i32, ptr %5, align 4
  %38 = add i32 %37, 1
  store i32 %38, ptr %5, align 4
  %39 = load i8, ptr %13, align 1
  %40 = zext i8 %39 to i32
  switch i32 %40, label %60 [
    i32 0, label %41
    i32 1, label %67
    i32 2, label %49
  ]

41:                                               ; preds = %28
  %42 = load ptr, ptr %9, align 8
  %43 = load i16, ptr %14, align 2
  %44 = zext i16 %43 to i32
  call void (ptr, ptr, ...) @proto_item_append_text(ptr noundef %42, ptr noundef @.str.629, i32 noundef %44)
  %45 = load ptr, ptr %9, align 8
  %46 = load i32, ptr %5, align 4
  %47 = load i32, ptr %15, align 4
  %48 = sub i32 %46, %47
  call void @proto_item_set_len(ptr noundef %45, i32 noundef %48)
  store i8 0, ptr %16, align 1
  br label %67

49:                                               ; preds = %28
  %50 = load ptr, ptr %10, align 8
  %51 = load i32, ptr @ett_ecmp_option_data, align 4
  %52 = call ptr @proto_item_add_subtree(ptr noundef %50, i32 noundef %51)
  store ptr %52, ptr %12, align 8
  %53 = load ptr, ptr %12, align 8
  %54 = load i32, ptr @hf_ecmp_process_time, align 4
  %55 = load ptr, ptr %7, align 8
  %56 = load i32, ptr %5, align 4
  %57 = call ptr @proto_tree_add_item(ptr noundef %53, i32 noundef %54, ptr noundef %55, i32 noundef %56, i32 noundef 8, i32 noundef 0)
  %58 = load i32, ptr %5, align 4
  %59 = add i32 %58, 8
  store i32 %59, ptr %5, align 4
  br label %67

60:                                               ; preds = %28
  %61 = load ptr, ptr %9, align 8
  %62 = load i16, ptr %14, align 2
  %63 = zext i16 %62 to i32
  call void (ptr, ptr, ...) @proto_item_append_text(ptr noundef %61, ptr noundef @.str.630, i32 noundef %63)
  %64 = load ptr, ptr %6, align 8
  %65 = load ptr, ptr %9, align 8
  %66 = call ptr @expert_add_info(ptr noundef %64, ptr noundef %65, ptr noundef @ei_ecmp_option)
  br label %67

67:                                               ; preds = %60, %49, %28, %41
  %68 = load i16, ptr %14, align 2
  %69 = add i16 %68, 1
  store i16 %69, ptr %14, align 2
  br label %25, !llvm.loop !8

70:                                               ; preds = %25
  %71 = load i32, ptr %5, align 4
  call void @llvm.lifetime.end.p0(i64 1, ptr %16) #3
  call void @llvm.lifetime.end.p0(i64 4, ptr %15) #3
  call void @llvm.lifetime.end.p0(i64 2, ptr %14) #3
  call void @llvm.lifetime.end.p0(i64 1, ptr %13) #3
  call void @llvm.lifetime.end.p0(i64 8, ptr %12) #3
  call void @llvm.lifetime.end.p0(i64 8, ptr %11) #3
  call void @llvm.lifetime.end.p0(i64 8, ptr %10) #3
  call void @llvm.lifetime.end.p0(i64 8, ptr %9) #3
  ret i32 %71
}