; Function Attrs: null_pointer_is_valid sspstrong uwtable
define internal fastcc noundef i32 @add_option_codes(i32 noundef %0, ptr noundef %1, ptr noundef %2, ptr noundef %3) unnamed_addr #0 {
  %5 = alloca ptr, align 8
  call void @llvm.lifetime.start.p0(i64 8, ptr nonnull %5) #3
  store ptr null, ptr %5, align 8
  %6 = add i32 %0, 1
  %7 = load i32, ptr @ett_ecmp_option, align 4
  %8 = call ptr @proto_tree_add_subtree(ptr noundef %3, ptr noundef %2, i32 noundef %6, i32 noundef 1, i32 noundef %7, ptr noundef nonnull %5, ptr noundef nonnull @.str.628)
  br label %9

9:                                                ; preds = %25, %4
  %.02428 = phi i32 [ %6, %4 ], [ %.125, %25 ]
  %.02627 = phi i16 [ 0, %4 ], [ %26, %25 ]
  %10 = call zeroext i8 @tvb_get_uint8(ptr noundef %2, i32 noundef %.02428)
  %11 = load i32, ptr @hf_ecmp_option, align 4
  %12 = call ptr @proto_tree_add_item(ptr noundef %8, i32 noundef %11, ptr noundef %2, i32 noundef %.02428, i32 noundef 1, i32 noundef 0)
  %13 = add i32 %.02428, 1
  switch i8 %10, label %20 [
    i8 0, label %27
    i8 1, label %25
    i8 2, label %14
  ]

14:                                               ; preds = %9
  %15 = load i32, ptr @ett_ecmp_option_data, align 4
  %16 = call ptr @proto_item_add_subtree(ptr noundef %12, i32 noundef %15)
  %17 = load i32, ptr @hf_ecmp_process_time, align 4
  %18 = call ptr @proto_tree_add_item(ptr noundef %16, i32 noundef %17, ptr noundef %2, i32 noundef %13, i32 noundef 8, i32 noundef 0)
  %19 = add i32 %.02428, 9
  br label %25

20:                                               ; preds = %9
  %21 = load ptr, ptr %5, align 8
  %22 = zext i16 %.02627 to i32
  call void (ptr, ptr, ...) @proto_item_append_text(ptr noundef %21, ptr noundef nonnull @.str.630, i32 noundef %22)
  %23 = load ptr, ptr %5, align 8
  %24 = call ptr @expert_add_info(ptr noundef %1, ptr noundef %23, ptr noundef nonnull @ei_ecmp_option)
  br label %25

25:                                               ; preds = %20, %14, %9
  %.125 = phi i32 [ %13, %20 ], [ %19, %14 ], [ %13, %9 ]
  %26 = add i16 %.02627, 1
  br label %9, !llvm.loop !6

27:                                               ; preds = %9
  %28 = load ptr, ptr %5, align 8
  %29 = zext i16 %.02627 to i32
  call void (ptr, ptr, ...) @proto_item_append_text(ptr noundef %28, ptr noundef nonnull @.str.629, i32 noundef %29)
  %30 = load ptr, ptr %5, align 8
  %31 = sub i32 %.02428, %0
  call void @proto_item_set_len(ptr noundef %30, i32 noundef %31)
  call void @llvm.lifetime.end.p0(i64 8, ptr nonnull %5) #3
  ret i32 %13
}